#include <math.h>
#include <stdio.h>
#include <stdlib.h>
#include <string.h>

int main()
{
 int i,j,k,l,n,m;
 char a[150],b[150];
 for(m=0;m<1000;m++)
 {for(i=0;i<150;i++)
   a[i]=0,b[i]=0;
  scanf("%s",a);
  l=strlen(a);
  if(l==0) break;
  for(i=0;i<l;i++)
   b[i]=a[i];
  for(i=0;i<l;i++)
   for(j=0;j<l;j++)
    if(a[j]=='(')
    {for(k=j+1;k<l;k++)
     {if(a[k]=='(') break;
      if(a[k]==')') 
      {a[j]='a',a[k]='a';break;}}}
  printf("%s\n",b);
  for(i=0;i<l;i++)
  {if(a[i]=='(') printf("$");
   else if(a[i]==')') printf("?");
   else printf(" ");}
  printf("\n");
  
  }
}
