; ModuleID = '17/280.c'
source_filename = "17/280.c"
target datalayout = "e-m:e-p270:32:32-p271:32:32-p272:64:64-i64:64-f80:128-n8:16:32:64-S128"
target triple = "x86_64-pc-linux-gnu"

@.str = private unnamed_addr constant [3 x i8] c"%s\00", align 1
@.str.1 = private unnamed_addr constant [4 x i8] c"%s\0A\00", align 1
@.str.2 = private unnamed_addr constant [2 x i8] c"$\00", align 1
@.str.3 = private unnamed_addr constant [2 x i8] c"?\00", align 1
@.str.4 = private unnamed_addr constant [2 x i8] c" \00", align 1
@.str.5 = private unnamed_addr constant [2 x i8] c"\0A\00", align 1

; Function Attrs: noinline nounwind uwtable
define dso_local i32 @main() #0 {
  %1 = alloca i32, align 4
  %2 = alloca i32, align 4
  %3 = alloca i32, align 4
  %4 = alloca i32, align 4
  %5 = alloca i32, align 4
  %6 = alloca i32, align 4
  %7 = alloca i32, align 4
  %8 = alloca [150 x i8], align 16
  %9 = alloca [150 x i8], align 16
  store i32 0, i32* %1, align 4
  store i32 0, i32* %7, align 4
  br label %10

10:                                               ; preds = %145, %0
  %11 = load i32, i32* %7, align 4
  %12 = icmp slt i32 %11, 1000
  br i1 %12, label %13, label %148

13:                                               ; preds = %10
  store i32 0, i32* %2, align 4
  br label %14

14:                                               ; preds = %24, %13
  %15 = load i32, i32* %2, align 4
  %16 = icmp slt i32 %15, 150
  br i1 %16, label %17, label %27

17:                                               ; preds = %14
  %18 = load i32, i32* %2, align 4
  %19 = sext i32 %18 to i64
  %20 = getelementptr inbounds [150 x i8], [150 x i8]* %8, i64 0, i64 %19
  store i8 0, i8* %20, align 1
  %21 = load i32, i32* %2, align 4
  %22 = sext i32 %21 to i64
  %23 = getelementptr inbounds [150 x i8], [150 x i8]* %9, i64 0, i64 %22
  store i8 0, i8* %23, align 1
  br label %24

24:                                               ; preds = %17
  %25 = load i32, i32* %2, align 4
  %26 = add nsw i32 %25, 1
  store i32 %26, i32* %2, align 4
  br label %14

27:                                               ; preds = %14
  %28 = getelementptr inbounds [150 x i8], [150 x i8]* %8, i64 0, i64 0
  %29 = call i32 (i8*, ...) @__isoc99_scanf(i8* getelementptr inbounds ([3 x i8], [3 x i8]* @.str, i64 0, i64 0), i8* %28)
  %30 = getelementptr inbounds [150 x i8], [150 x i8]* %8, i64 0, i64 0
  %31 = call i64 @strlen(i8* %30) #3
  %32 = trunc i64 %31 to i32
  store i32 %32, i32* %5, align 4
  %33 = load i32, i32* %5, align 4
  %34 = icmp eq i32 %33, 0
  br i1 %34, label %35, label %36

35:                                               ; preds = %27
  br label %148

36:                                               ; preds = %27
  store i32 0, i32* %2, align 4
  br label %37

37:                                               ; preds = %49, %36
  %38 = load i32, i32* %2, align 4
  %39 = load i32, i32* %5, align 4
  %40 = icmp slt i32 %38, %39
  br i1 %40, label %41, label %52

41:                                               ; preds = %37
  %42 = load i32, i32* %2, align 4
  %43 = sext i32 %42 to i64
  %44 = getelementptr inbounds [150 x i8], [150 x i8]* %8, i64 0, i64 %43
  %45 = load i8, i8* %44, align 1
  %46 = load i32, i32* %2, align 4
  %47 = sext i32 %46 to i64
  %48 = getelementptr inbounds [150 x i8], [150 x i8]* %9, i64 0, i64 %47
  store i8 %45, i8* %48, align 1
  br label %49

49:                                               ; preds = %41
  %50 = load i32, i32* %2, align 4
  %51 = add nsw i32 %50, 1
  store i32 %51, i32* %2, align 4
  br label %37

52:                                               ; preds = %37
  store i32 0, i32* %2, align 4
  br label %53

53:                                               ; preds = %108, %52
  %54 = load i32, i32* %2, align 4
  %55 = load i32, i32* %5, align 4
  %56 = icmp slt i32 %54, %55
  br i1 %56, label %57, label %111

57:                                               ; preds = %53
  store i32 0, i32* %3, align 4
  br label %58

58:                                               ; preds = %104, %57
  %59 = load i32, i32* %3, align 4
  %60 = load i32, i32* %5, align 4
  %61 = icmp slt i32 %59, %60
  br i1 %61, label %62, label %107

62:                                               ; preds = %58
  %63 = load i32, i32* %3, align 4
  %64 = sext i32 %63 to i64
  %65 = getelementptr inbounds [150 x i8], [150 x i8]* %8, i64 0, i64 %64
  %66 = load i8, i8* %65, align 1
  %67 = sext i8 %66 to i32
  %68 = icmp eq i32 %67, 40
  br i1 %68, label %69, label %103

69:                                               ; preds = %62
  %70 = load i32, i32* %3, align 4
  %71 = add nsw i32 %70, 1
  store i32 %71, i32* %4, align 4
  br label %72

72:                                               ; preds = %99, %69
  %73 = load i32, i32* %4, align 4
  %74 = load i32, i32* %5, align 4
  %75 = icmp slt i32 %73, %74
  br i1 %75, label %76, label %102

76:                                               ; preds = %72
  %77 = load i32, i32* %4, align 4
  %78 = sext i32 %77 to i64
  %79 = getelementptr inbounds [150 x i8], [150 x i8]* %8, i64 0, i64 %78
  %80 = load i8, i8* %79, align 1
  %81 = sext i8 %80 to i32
  %82 = icmp eq i32 %81, 40
  br i1 %82, label %83, label %84

83:                                               ; preds = %76
  br label %102

84:                                               ; preds = %76
  %85 = load i32, i32* %4, align 4
  %86 = sext i32 %85 to i64
  %87 = getelementptr inbounds [150 x i8], [150 x i8]* %8, i64 0, i64 %86
  %88 = load i8, i8* %87, align 1
  %89 = sext i8 %88 to i32
  %90 = icmp eq i32 %89, 41
  br i1 %90, label %91, label %98

91:                                               ; preds = %84
  %92 = load i32, i32* %3, align 4
  %93 = sext i32 %92 to i64
  %94 = getelementptr inbounds [150 x i8], [150 x i8]* %8, i64 0, i64 %93
  store i8 97, i8* %94, align 1
  %95 = load i32, i32* %4, align 4
  %96 = sext i32 %95 to i64
  %97 = getelementptr inbounds [150 x i8], [150 x i8]* %8, i64 0, i64 %96
  store i8 97, i8* %97, align 1
  br label %102

98:                                               ; preds = %84
  br label %99

99:                                               ; preds = %98
  %100 = load i32, i32* %4, align 4
  %101 = add nsw i32 %100, 1
  store i32 %101, i32* %4, align 4
  br label %72

102:                                              ; preds = %91, %83, %72
  br label %103

103:                                              ; preds = %102, %62
  br label %104

104:                                              ; preds = %103
  %105 = load i32, i32* %3, align 4
  %106 = add nsw i32 %105, 1
  store i32 %106, i32* %3, align 4
  br label %58

107:                                              ; preds = %58
  br label %108

108:                                              ; preds = %107
  %109 = load i32, i32* %2, align 4
  %110 = add nsw i32 %109, 1
  store i32 %110, i32* %2, align 4
  br label %53

111:                                              ; preds = %53
  %112 = getelementptr inbounds [150 x i8], [150 x i8]* %9, i64 0, i64 0
  %113 = call i32 (i8*, ...) @printf(i8* getelementptr inbounds ([4 x i8], [4 x i8]* @.str.1, i64 0, i64 0), i8* %112)
  store i32 0, i32* %2, align 4
  br label %114

114:                                              ; preds = %140, %111
  %115 = load i32, i32* %2, align 4
  %116 = load i32, i32* %5, align 4
  %117 = icmp slt i32 %115, %116
  br i1 %117, label %118, label %143

118:                                              ; preds = %114
  %119 = load i32, i32* %2, align 4
  %120 = sext i32 %119 to i64
  %121 = getelementptr inbounds [150 x i8], [150 x i8]* %8, i64 0, i64 %120
  %122 = load i8, i8* %121, align 1
  %123 = sext i8 %122 to i32
  %124 = icmp eq i32 %123, 40
  br i1 %124, label %125, label %127

125:                                              ; preds = %118
  %126 = call i32 (i8*, ...) @printf(i8* getelementptr inbounds ([2 x i8], [2 x i8]* @.str.2, i64 0, i64 0))
  br label %139

127:                                              ; preds = %118
  %128 = load i32, i32* %2, align 4
  %129 = sext i32 %128 to i64
  %130 = getelementptr inbounds [150 x i8], [150 x i8]* %8, i64 0, i64 %129
  %131 = load i8, i8* %130, align 1
  %132 = sext i8 %131 to i32
  %133 = icmp eq i32 %132, 41
  br i1 %133, label %134, label %136

134:                                              ; preds = %127
  %135 = call i32 (i8*, ...) @printf(i8* getelementptr inbounds ([2 x i8], [2 x i8]* @.str.3, i64 0, i64 0))
  br label %138

136:                                              ; preds = %127
  %137 = call i32 (i8*, ...) @printf(i8* getelementptr inbounds ([2 x i8], [2 x i8]* @.str.4, i64 0, i64 0))
  br label %138

138:                                              ; preds = %136, %134
  br label %139

139:                                              ; preds = %138, %125
  br label %140

140:                                              ; preds = %139
  %141 = load i32, i32* %2, align 4
  %142 = add nsw i32 %141, 1
  store i32 %142, i32* %2, align 4
  br label %114

143:                                              ; preds = %114
  %144 = call i32 (i8*, ...) @printf(i8* getelementptr inbounds ([2 x i8], [2 x i8]* @.str.5, i64 0, i64 0))
  br label %145

145:                                              ; preds = %143
  %146 = load i32, i32* %7, align 4
  %147 = add nsw i32 %146, 1
  store i32 %147, i32* %7, align 4
  br label %10

148:                                              ; preds = %35, %10
  %149 = load i32, i32* %1, align 4
  ret i32 %149
}

declare dso_local i32 @__isoc99_scanf(i8*, ...) #1

; Function Attrs: nounwind readonly
declare dso_local i64 @strlen(i8*) #2

declare dso_local i32 @printf(i8*, ...) #1


!llvm.module.flags = !{!0}
!llvm.ident = !{!1}

!0 = !{i32 1, !"wchar_size", i32 4}
!1 = !{!"clang version 10.0.0-4ubuntu1 "}
